	.file	"raise_exception.cpp"
	.intel_syntax noprefix
	.text
.Ltext0:
	.section	.rodata
.LC0:
	.string	"nothing to do..."
	.align 8
.LC1:
	.string	"Caught exception in wrong catch block..."
.LC2:
	.string	"Caught a FirstException"
.LC3:
	.string	"End of unsafe_function"
	.text
	.globl	_Z15unsafe_functionv
	.type	_Z15unsafe_functionv, @function
_Z15unsafe_functionv:
.LFB11:
	.file 1 "raise_exception.cpp"
	.loc 1 6 24
	.cfi_startproc
	.cfi_personality 0x3,__gxx_personality_v0
	.cfi_lsda 0x3,.LLSDA11
	push	rbp
	.cfi_def_cfa_offset 16
	.cfi_offset 6, -16
	mov	rbp, rsp
	.cfi_def_cfa_register 6
	push	rbx
	sub	rsp, 24
	.cfi_offset 3, -24
	.loc 1 8 11
	mov	edi, OFFSET FLAT:.LC0
.LEHB0:
	call	puts
.LEHE0:
.L4:
	.loc 1 14 27
	mov	edi, 1
	call	__cxa_allocate_exception
	mov	edx, 0
	mov	esi, OFFSET FLAT:_ZTI15SecondException
	mov	rdi, rax
.LEHB1:
	call	__cxa_throw
.LEHE1:
.L9:
	cmp	rdx, 1
	je	.L3
	mov	rdi, rax
.LEHB2:
	call	_Unwind_Resume
.LEHE2:
.L3:
.LBB2:
	.loc 1 9 27
	mov	rdi, rax
	call	__cxa_begin_catch
	mov	QWORD PTR [rbp-32], rax
	.loc 1 10 11
	mov	edi, OFFSET FLAT:.LC1
.LEHB3:
	call	puts
.LEHE3:
	.loc 1 9 27
	call	__cxa_end_catch
	jmp	.L4
.L10:
	mov	rbx, rax
	call	__cxa_end_catch
	mov	rax, rbx
	mov	rdi, rax
.LEHB4:
	call	_Unwind_Resume
.L11:
	cmp	rdx, 1
	je	.L7
	mov	rdi, rax
	call	_Unwind_Resume
.LEHE4:
.L7:
.LBE2:
.LBB3:
	.loc 1 15 27
	mov	rdi, rax
	call	__cxa_begin_catch
	mov	QWORD PTR [rbp-24], rax
	.loc 1 16 11
	mov	edi, OFFSET FLAT:.LC2
.LEHB5:
	call	puts
.LEHE5:
	.loc 1 15 27
	call	__cxa_end_catch
.LBE3:
	.loc 1 18 9
	mov	edi, OFFSET FLAT:.LC3
.LEHB6:
	call	puts
	.loc 1 19 1
	jmp	.L13
.L12:
	mov	rbx, rax
.LBB4:
	.loc 1 15 27
	call	__cxa_end_catch
	mov	rax, rbx
	mov	rdi, rax
	call	_Unwind_Resume
.LEHE6:
.L13:
.LBE4:
	.loc 1 19 1
	add	rsp, 24
	pop	rbx
	pop	rbp
	.cfi_def_cfa 7, 8
	ret
	.cfi_endproc
.LFE11:
	.globl	__gxx_personality_v0
	.section	.gcc_except_table,"a",@progbits
	.align 4
.LLSDA11:
	.byte	0xff
	.byte	0x3
	.uleb128 .LLSDATT11-.LLSDATTD11
.LLSDATTD11:
	.byte	0x1
	.uleb128 .LLSDACSE11-.LLSDACSB11
.LLSDACSB11:
	.uleb128 .LEHB0-.LFB11
	.uleb128 .LEHE0-.LEHB0
	.uleb128 .L9-.LFB11
	.uleb128 0x1
	.uleb128 .LEHB1-.LFB11
	.uleb128 .LEHE1-.LEHB1
	.uleb128 .L11-.LFB11
	.uleb128 0x1
	.uleb128 .LEHB2-.LFB11
	.uleb128 .LEHE2-.LEHB2
	.uleb128 0
	.uleb128 0
	.uleb128 .LEHB3-.LFB11
	.uleb128 .LEHE3-.LEHB3
	.uleb128 .L10-.LFB11
	.uleb128 0
	.uleb128 .LEHB4-.LFB11
	.uleb128 .LEHE4-.LEHB4
	.uleb128 0
	.uleb128 0
	.uleb128 .LEHB5-.LFB11
	.uleb128 .LEHE5-.LEHB5
	.uleb128 .L12-.LFB11
	.uleb128 0
	.uleb128 .LEHB6-.LFB11
	.uleb128 .LEHE6-.LEHB6
	.uleb128 0
	.uleb128 0
.LLSDACSE11:
	.byte	0x1
	.byte	0
	.align 4
	.long	_ZTI14FirstException
.LLSDATT11:
	.text
	.size	_Z15unsafe_functionv, .-_Z15unsafe_functionv
	.section	.rodata
.LC4:
	.string	"End of handler"
.LC5:
	.string	"Caught a First exception"
.LC6:
	.string	"Caught a Second exception"
	.text
	.globl	_Z7handlerv
	.type	_Z7handlerv, @function
_Z7handlerv:
.LFB12:
	.loc 1 21 16
	.cfi_startproc
	.cfi_personality 0x3,__gxx_personality_v0
	.cfi_lsda 0x3,.LLSDA12
	push	rbp
	.cfi_def_cfa_offset 16
	.cfi_offset 6, -16
	mov	rbp, rsp
	.cfi_def_cfa_register 6
	push	rbx
	sub	rsp, 24
	.cfi_offset 3, -24
.LEHB7:
	.loc 1 23 20
	call	_Z15unsafe_functionv
.LEHE7:
.L18:
	.loc 1 29 9
	mov	edi, OFFSET FLAT:.LC4
.LEHB8:
	call	puts
	.loc 1 30 1
	jmp	.L24
.L21:
	cmp	rdx, 1
	je	.L16
	cmp	rdx, 2
	je	.L17
	mov	rdi, rax
	call	_Unwind_Resume
.LEHE8:
.L16:
.LBB5:
	.loc 1 24 27
	mov	rdi, rax
	call	__cxa_begin_catch
	mov	QWORD PTR [rbp-24], rax
	.loc 1 25 11
	mov	edi, OFFSET FLAT:.LC5
.LEHB9:
	call	puts
.LEHE9:
	.loc 1 24 27
	call	__cxa_end_catch
	jmp	.L18
.L17:
.LBE5:
.LBB6:
	.loc 1 26 28
	mov	rdi, rax
	call	__cxa_begin_catch
	mov	QWORD PTR [rbp-32], rax
	.loc 1 27 11
	mov	edi, OFFSET FLAT:.LC6
.LEHB10:
	call	puts
.LEHE10:
	.loc 1 26 28
	call	__cxa_end_catch
	jmp	.L18
.L22:
	mov	rbx, rax
.LBE6:
.LBB7:
	.loc 1 24 27
	call	__cxa_end_catch
	mov	rax, rbx
	mov	rdi, rax
.LEHB11:
	call	_Unwind_Resume
.L23:
	mov	rbx, rax
.LBE7:
.LBB8:
	.loc 1 26 28
	call	__cxa_end_catch
	mov	rax, rbx
	mov	rdi, rax
	call	_Unwind_Resume
.LEHE11:
.L24:
.LBE8:
	.loc 1 30 1
	add	rsp, 24
	pop	rbx
	pop	rbp
	.cfi_def_cfa 7, 8
	ret
	.cfi_endproc
.LFE12:
	.section	.gcc_except_table
	.align 4
.LLSDA12:
	.byte	0xff
	.byte	0x3
	.uleb128 .LLSDATT12-.LLSDATTD12
.LLSDATTD12:
	.byte	0x1
	.uleb128 .LLSDACSE12-.LLSDACSB12
.LLSDACSB12:
	.uleb128 .LEHB7-.LFB12
	.uleb128 .LEHE7-.LEHB7
	.uleb128 .L21-.LFB12
	.uleb128 0x3
	.uleb128 .LEHB8-.LFB12
	.uleb128 .LEHE8-.LEHB8
	.uleb128 0
	.uleb128 0
	.uleb128 .LEHB9-.LFB12
	.uleb128 .LEHE9-.LEHB9
	.uleb128 .L22-.LFB12
	.uleb128 0
	.uleb128 .LEHB10-.LFB12
	.uleb128 .LEHE10-.LEHB10
	.uleb128 .L23-.LFB12
	.uleb128 0
	.uleb128 .LEHB11-.LFB12
	.uleb128 .LEHE11-.LEHB11
	.uleb128 0
	.uleb128 0
.LLSDACSE12:
	.byte	0x2
	.byte	0
	.byte	0x1
	.byte	0x7d
	.align 4
	.long	_ZTI15SecondException
	.long	_ZTI14FirstException
.LLSDATT12:
	.text
	.size	_Z7handlerv, .-_Z7handlerv
	.globl	seppuku
	.type	seppuku, @function
seppuku:
.LFB13:
	.loc 1 32 16
	.cfi_startproc
	push	rbp
	.cfi_def_cfa_offset 16
	.cfi_offset 6, -16
	mov	rbp, rsp
	.cfi_def_cfa_register 6
	.loc 1 33 10
	call	_Z7handlerv
	.loc 1 34 1
	nop
	pop	rbp
	.cfi_def_cfa 7, 8
	ret
	.cfi_endproc
.LFE13:
	.size	seppuku, .-seppuku
	.weak	_ZTI15SecondException
	.section	.rodata._ZTI15SecondException,"aG",@progbits,_ZTI15SecondException,comdat
	.align 8
	.type	_ZTI15SecondException, @object
	.size	_ZTI15SecondException, 16
_ZTI15SecondException:
	.quad	_ZTVN10__cxxabiv117__class_type_infoE+16
	.quad	_ZTS15SecondException
	.weak	_ZTS15SecondException
	.section	.rodata._ZTS15SecondException,"aG",@progbits,_ZTS15SecondException,comdat
	.align 16
	.type	_ZTS15SecondException, @object
	.size	_ZTS15SecondException, 18
_ZTS15SecondException:
	.string	"15SecondException"
	.weak	_ZTI14FirstException
	.section	.rodata._ZTI14FirstException,"aG",@progbits,_ZTI14FirstException,comdat
	.align 8
	.type	_ZTI14FirstException, @object
	.size	_ZTI14FirstException, 16
_ZTI14FirstException:
	.quad	_ZTVN10__cxxabiv117__class_type_infoE+16
	.quad	_ZTS14FirstException
	.weak	_ZTS14FirstException
	.section	.rodata._ZTS14FirstException,"aG",@progbits,_ZTS14FirstException,comdat
	.align 16
	.type	_ZTS14FirstException, @object
	.size	_ZTS14FirstException, 17
_ZTS14FirstException:
	.string	"14FirstException"
	.text
.Letext0:
	.file 2 "/usr/lib/gcc/x86_64-linux-gnu/9/include/stddef.h"
	.file 3 "/usr/include/x86_64-linux-gnu/bits/types.h"
	.file 4 "/usr/include/libio.h"
	.file 5 "/usr/include/stdio.h"
	.file 6 "/usr/include/x86_64-linux-gnu/bits/sys_errlist.h"
	.file 7 "/usr/include/c++/9/cstdlib"
	.file 8 "/usr/include/c++/9/bits/std_abs.h"
	.file 9 "/usr/include/x86_64-linux-gnu/c++/9/bits/c++config.h"
	.file 10 "/usr/include/stdlib.h"
	.file 11 "/usr/include/c++/9/stdlib.h"
	.file 12 "raise_exception.h"
	.file 13 "<built-in>"
	.section	.note.GNU-stack,"",@progbits
